; Function Attrs: mustprogress uwtable
define internal void @"_ZN9grpc_core20arena_promise_detail17AllocatedCallableISt10unique_ptrI19grpc_metadata_batchNS_5Arena13PooledDeleterEEZNS_8OnCancelINS_14promise_detail3SeqINS_12ArenaPromiseIS6_EEJZNS_19ConnectedSubchannel15MakeCallPromiseENS_8CallArgsEE3$_0EEEZNSC_15MakeCallPromiseESD_E3$_1EEDaT_T0_EUlvE_E7DestroyEPNS0_7ArgTypeE"(ptr nocapture noundef readonly %arg) #3 align 2 personality ptr @__gxx_personality_v0 {
entry:
  %0 = load ptr, ptr %arg, align 8
  %1 = getelementptr inbounds i8, ptr %0, i64 16
  tail call fastcc void @"_ZN9grpc_core14promise_detail3SeqINS_12ArenaPromiseISt10unique_ptrI19grpc_metadata_batchNS_5Arena13PooledDeleterEEEEJZNS_19ConnectedSubchannel15MakeCallPromiseENS_8CallArgsEE3$_0EED2Ev"(ptr noundef nonnull align 16 dereferenceable(64) %1) #26
  %done_.i.i.i = getelementptr inbounds i8, ptr %0, i64 8
  %2 = load i8, ptr %done_.i.i.i, align 8
  %3 = and i8 %2, 1
  %tobool.not.i.i.i = icmp eq i8 %3, 0
  br i1 %tobool.not.i.i.i, label %if.then.i.i.i, label %if.end.i.i.i

if.then.i.i.i:                                    ; preds = %entry
  %this.val1.i.i.i = load ptr, ptr %0, align 8
  %4 = getelementptr i8, ptr %this.val1.i.i.i, i64 32
  %this.val1.val.i.i.i = load ptr, ptr %4, align 8
  %cmp.not.i.i.i.i = icmp eq ptr %this.val1.val.i.i.i, null
  br i1 %cmp.not.i.i.i.i, label %if.then.i.i.i.i, label %do.end.i.i.i.i

if.then.i.i.i.i:                                  ; preds = %if.then.i.i.i
  invoke void @gpr_assertion_failed(ptr noundef nonnull @.str.3, i32 noundef 163, ptr noundef nonnull @.str.10) #29
          to label %.noexc.i.i.i unwind label %terminate.lpad.i.i.i

.noexc.i.i.i:                                     ; preds = %if.then.i.i.i.i
  unreachable

do.end.i.i.i.i:                                   ; preds = %if.then.i.i.i
  %call_counter_.i.i.i.i.i = getelementptr inbounds i8, ptr %this.val1.val.i.i.i, i64 120
  invoke void @_ZN9grpc_core8channelz18CallCountingHelper16RecordCallFailedEv(ptr noundef nonnull align 8 dereferenceable(32) %call_counter_.i.i.i.i.i)
          to label %if.end.i.i.i unwind label %terminate.lpad.i.i.i

if.end.i.i.i:                                     ; preds = %do.end.i.i.i.i, %entry
  %this.val.i.i.i = load ptr, ptr %0, align 8
  %cmp.not.i.i.i.i.i = icmp eq ptr %this.val.i.i.i, null
  br i1 %cmp.not.i.i.i.i.i, label %"_ZN9grpc_core8DestructIZNS_8OnCancelINS_14promise_detail3SeqINS_12ArenaPromiseISt10unique_ptrI19grpc_metadata_batchNS_5Arena13PooledDeleterEEEEJZNS_19ConnectedSubchannel15MakeCallPromiseENS_8CallArgsEE3$_0EEEZNSB_15MakeCallPromiseESC_E3$_1EEDaT_T0_EUlvE_EEvPSG_.exit", label %if.then.i.i.i.i.i

if.then.i.i.i.i.i:                                ; preds = %if.end.i.i.i
  %refs_.i.i.i.i.i.i = getelementptr inbounds i8, ptr %this.val.i.i.i, i64 8
  %5 = atomicrmw sub ptr %refs_.i.i.i.i.i.i, i64 1 acq_rel, align 8
  %cmp.i.i.i.i.i.i.i = icmp eq i64 %5, 1
  br i1 %cmp.i.i.i.i.i.i.i, label %if.then.i.i.i.i.i.i, label %"_ZN9grpc_core8DestructIZNS_8OnCancelINS_14promise_detail3SeqINS_12ArenaPromiseISt10unique_ptrI19grpc_metadata_batchNS_5Arena13PooledDeleterEEEEJZNS_19ConnectedSubchannel15MakeCallPromiseENS_8CallArgsEE3$_0EEEZNSB_15MakeCallPromiseESC_E3$_1EEDaT_T0_EUlvE_EEvPSG_.exit"

if.then.i.i.i.i.i.i:                              ; preds = %if.then.i.i.i.i.i
  %vtable.i.i.i.i.i.i.i = load ptr, ptr %this.val.i.i.i, align 8
  %vfn.i.i.i.i.i.i.i = getelementptr inbounds i8, ptr %vtable.i.i.i.i.i.i.i, i64 8
  %6 = load ptr, ptr %vfn.i.i.i.i.i.i.i, align 8
  tail call void %6(ptr noundef nonnull align 8 dereferenceable(40) %this.val.i.i.i) #26
  br label %"_ZN9grpc_core8DestructIZNS_8OnCancelINS_14promise_detail3SeqINS_12ArenaPromiseISt10unique_ptrI19grpc_metadata_batchNS_5Arena13PooledDeleterEEEEJZNS_19ConnectedSubchannel15MakeCallPromiseENS_8CallArgsEE3$_0EEEZNSB_15MakeCallPromiseESC_E3$_1EEDaT_T0_EUlvE_EEvPSG_.exit"

terminate.lpad.i.i.i:                             ; preds = %do.end.i.i.i.i, %if.then.i.i.i.i
  %7 = landingpad { ptr, i32 }
          catch ptr null
  %8 = extractvalue { ptr, i32 } %7, 0
  tail call void @__clang_call_terminate(ptr %8) #27
  unreachable

"_ZN9grpc_core8DestructIZNS_8OnCancelINS_14promise_detail3SeqINS_12ArenaPromiseISt10unique_ptrI19grpc_metadata_batchNS_5Arena13PooledDeleterEEEEJZNS_19ConnectedSubchannel15MakeCallPromiseENS_8CallArgsEE3$_0EEEZNSB_15MakeCallPromiseESC_E3$_1EEDaT_T0_EUlvE_EEvPSG_.exit": ; preds = %if.end.i.i.i, %if.then.i.i.i.i.i, %if.then.i.i.i.i.i.i
  ret void
}